target datalayout = "e-m:e-p270:32:32-p271:32:32-p272:64:64-i64:64-i128:128-f80:128-n8:16:32:64-S128"
target triple = "x86_64-pc-linux-gnu"

%struct.Py_buffer = type { ptr, ptr, i64, i64, i32, i32, ptr, ptr, ptr, ptr, ptr }

@PyExc_ValueError = external global ptr, align 8
@.str.11 = private unnamed_addr constant [67 x i8] c"memoryview assignment: lvalue and rvalue have different structures\00", align 1

; Function Attrs: inlinehint nounwind uwtable
define internal i32 @equiv_shape(ptr noundef %0, ptr noundef %1) #3 {
  %3 = alloca i32, align 4
  %4 = alloca ptr, align 8
  %5 = alloca ptr, align 8
  %6 = alloca i32, align 4
  %7 = alloca i32, align 4
  store ptr %0, ptr %4, align 8, !tbaa !9
  store ptr %1, ptr %5, align 8, !tbaa !9
  call void @llvm.lifetime.start.p0(i64 4, ptr %6) #9
  %8 = load ptr, ptr %4, align 8, !tbaa !9
  %9 = getelementptr inbounds nuw %struct.Py_buffer, ptr %8, i32 0, i32 5
  %10 = load i32, ptr %9, align 4, !tbaa !25
  %11 = load ptr, ptr %5, align 8, !tbaa !9
  %12 = getelementptr inbounds nuw %struct.Py_buffer, ptr %11, i32 0, i32 5
  %13 = load i32, ptr %12, align 4, !tbaa !25
  %14 = icmp ne i32 %10, %13
  br i1 %14, label %15, label %16

15:                                               ; preds = %2
  store i32 0, ptr %3, align 4
  store i32 1, ptr %7, align 4
  br label %55

16:                                               ; preds = %2
  store i32 0, ptr %6, align 4, !tbaa !21
  br label %17

17:                                               ; preds = %51, %16
  %18 = load i32, ptr %6, align 4, !tbaa !21
  %19 = load ptr, ptr %4, align 8, !tbaa !9
  %20 = getelementptr inbounds nuw %struct.Py_buffer, ptr %19, i32 0, i32 5
  %21 = load i32, ptr %20, align 4, !tbaa !25
  %22 = icmp slt i32 %18, %21
  br i1 %22, label %23, label %54

23:                                               ; preds = %17
  %24 = load ptr, ptr %4, align 8, !tbaa !9
  %25 = getelementptr inbounds nuw %struct.Py_buffer, ptr %24, i32 0, i32 7
  %26 = load ptr, ptr %25, align 8, !tbaa !44
  %27 = load i32, ptr %6, align 4, !tbaa !21
  %28 = sext i32 %27 to i64
  %29 = getelementptr i64, ptr %26, i64 %28
  %30 = load i64, ptr %29, align 8, !tbaa !23
  %31 = load ptr, ptr %5, align 8, !tbaa !9
  %32 = getelementptr inbounds nuw %struct.Py_buffer, ptr %31, i32 0, i32 7
  %33 = load ptr, ptr %32, align 8, !tbaa !44
  %34 = load i32, ptr %6, align 4, !tbaa !21
  %35 = sext i32 %34 to i64
  %36 = getelementptr i64, ptr %33, i64 %35
  %37 = load i64, ptr %36, align 8, !tbaa !23
  %38 = icmp ne i64 %30, %37
  br i1 %38, label %39, label %40

39:                                               ; preds = %23
  store i32 0, ptr %3, align 4
  store i32 1, ptr %7, align 4
  br label %55

40:                                               ; preds = %23
  %41 = load ptr, ptr %4, align 8, !tbaa !9
  %42 = getelementptr inbounds nuw %struct.Py_buffer, ptr %41, i32 0, i32 7
  %43 = load ptr, ptr %42, align 8, !tbaa !44
  %44 = load i32, ptr %6, align 4, !tbaa !21
  %45 = sext i32 %44 to i64
  %46 = getelementptr i64, ptr %43, i64 %45
  %47 = load i64, ptr %46, align 8, !tbaa !23
  %48 = icmp eq i64 %47, 0
  br i1 %48, label %49, label %50

49:                                               ; preds = %40
  br label %54

50:                                               ; preds = %40
  br label %51

51:                                               ; preds = %50
  %52 = load i32, ptr %6, align 4, !tbaa !21
  %53 = add i32 %52, 1
  store i32 %53, ptr %6, align 4, !tbaa !21
  br label %17, !llvm.loop !163

54:                                               ; preds = %49, %17
  store i32 1, ptr %3, align 4
  store i32 1, ptr %7, align 4
  br label %55

55:                                               ; preds = %54, %39, %15
  call void @llvm.lifetime.end.p0(i64 4, ptr %6) #9
  %56 = load i32, ptr %3, align 4
  ret i32 %56
}

; Function Attrs: inlinehint nounwind uwtable
define internal i32 @equiv_format(ptr noundef %0, ptr noundef %1) #3 {
  %3 = alloca i32, align 4
  %4 = alloca ptr, align 8
  %5 = alloca ptr, align 8
  %6 = alloca ptr, align 8
  %7 = alloca ptr, align 8
  %8 = alloca i32, align 4
  store ptr %0, ptr %4, align 8, !tbaa !9
  store ptr %1, ptr %5, align 8, !tbaa !9
  call void @llvm.lifetime.start.p0(i64 8, ptr %6) #9
  call void @llvm.lifetime.start.p0(i64 8, ptr %7) #9
  %9 = load ptr, ptr %4, align 8, !tbaa !9
  %10 = getelementptr inbounds nuw %struct.Py_buffer, ptr %9, i32 0, i32 6
  %11 = load ptr, ptr %10, align 8, !tbaa !42
  %12 = getelementptr i8, ptr %11, i64 0
  %13 = load i8, ptr %12, align 1, !tbaa !29
  %14 = sext i8 %13 to i32
  %15 = icmp eq i32 %14, 64
  br i1 %15, label %16, label %21

16:                                               ; preds = %2
  %17 = load ptr, ptr %4, align 8, !tbaa !9
  %18 = getelementptr inbounds nuw %struct.Py_buffer, ptr %17, i32 0, i32 6
  %19 = load ptr, ptr %18, align 8, !tbaa !42
  %20 = getelementptr i8, ptr %19, i64 1
  br label %25

21:                                               ; preds = %2
  %22 = load ptr, ptr %4, align 8, !tbaa !9
  %23 = getelementptr inbounds nuw %struct.Py_buffer, ptr %22, i32 0, i32 6
  %24 = load ptr, ptr %23, align 8, !tbaa !42
  br label %25

25:                                               ; preds = %21, %16
  %26 = phi ptr [ %20, %16 ], [ %24, %21 ]
  store ptr %26, ptr %6, align 8, !tbaa !22
  %27 = load ptr, ptr %5, align 8, !tbaa !9
  %28 = getelementptr inbounds nuw %struct.Py_buffer, ptr %27, i32 0, i32 6
  %29 = load ptr, ptr %28, align 8, !tbaa !42
  %30 = getelementptr i8, ptr %29, i64 0
  %31 = load i8, ptr %30, align 1, !tbaa !29
  %32 = sext i8 %31 to i32
  %33 = icmp eq i32 %32, 64
  br i1 %33, label %34, label %39

34:                                               ; preds = %25
  %35 = load ptr, ptr %5, align 8, !tbaa !9
  %36 = getelementptr inbounds nuw %struct.Py_buffer, ptr %35, i32 0, i32 6
  %37 = load ptr, ptr %36, align 8, !tbaa !42
  %38 = getelementptr i8, ptr %37, i64 1
  br label %43

39:                                               ; preds = %25
  %40 = load ptr, ptr %5, align 8, !tbaa !9
  %41 = getelementptr inbounds nuw %struct.Py_buffer, ptr %40, i32 0, i32 6
  %42 = load ptr, ptr %41, align 8, !tbaa !42
  br label %43

43:                                               ; preds = %39, %34
  %44 = phi ptr [ %38, %34 ], [ %42, %39 ]
  store ptr %44, ptr %7, align 8, !tbaa !22
  %45 = load ptr, ptr %6, align 8, !tbaa !22
  %46 = load ptr, ptr %7, align 8, !tbaa !22
  %47 = call i32 @strcmp(ptr noundef %45, ptr noundef %46) #10
  %48 = icmp ne i32 %47, 0
  br i1 %48, label %57, label %49

49:                                               ; preds = %43
  %50 = load ptr, ptr %4, align 8, !tbaa !9
  %51 = getelementptr inbounds nuw %struct.Py_buffer, ptr %50, i32 0, i32 3
  %52 = load i64, ptr %51, align 8, !tbaa !43
  %53 = load ptr, ptr %5, align 8, !tbaa !9
  %54 = getelementptr inbounds nuw %struct.Py_buffer, ptr %53, i32 0, i32 3
  %55 = load i64, ptr %54, align 8, !tbaa !43
  %56 = icmp ne i64 %52, %55
  br i1 %56, label %57, label %58

57:                                               ; preds = %49, %43
  store i32 0, ptr %3, align 4
  store i32 1, ptr %8, align 4
  br label %59

58:                                               ; preds = %49
  store i32 1, ptr %3, align 4
  store i32 1, ptr %8, align 4
  br label %59

59:                                               ; preds = %58, %57
  call void @llvm.lifetime.end.p0(i64 8, ptr %7) #9
  call void @llvm.lifetime.end.p0(i64 8, ptr %6) #9
  %60 = load i32, ptr %3, align 4
  ret i32 %60
}

; Function Attrs: inlinehint nounwind uwtable
define internal i32 @last_dim_is_contiguous(ptr noundef %0, ptr noundef %1) #3 {
  %3 = alloca ptr, align 8
  %4 = alloca ptr, align 8
  store ptr %0, ptr %3, align 8, !tbaa !9
  store ptr %1, ptr %4, align 8, !tbaa !9
  %5 = load ptr, ptr %3, align 8, !tbaa !9
  %6 = getelementptr inbounds nuw %struct.Py_buffer, ptr %5, i32 0, i32 9
  %7 = load ptr, ptr %6, align 8, !tbaa !47
  %8 = icmp ne ptr %7, null
  br i1 %8, label %9, label %21

9:                                                ; preds = %2
  %10 = load ptr, ptr %3, align 8, !tbaa !9
  %11 = getelementptr inbounds nuw %struct.Py_buffer, ptr %10, i32 0, i32 9
  %12 = load ptr, ptr %11, align 8, !tbaa !47
  %13 = load ptr, ptr %3, align 8, !tbaa !9
  %14 = getelementptr inbounds nuw %struct.Py_buffer, ptr %13, i32 0, i32 5
  %15 = load i32, ptr %14, align 4, !tbaa !25
  %16 = sub i32 %15, 1
  %17 = sext i32 %16 to i64
  %18 = getelementptr i64, ptr %12, i64 %17
  %19 = load i64, ptr %18, align 8, !tbaa !23
  %20 = icmp sge i64 %19, 0
  br i1 %20, label %68, label %21

21:                                               ; preds = %9, %2
  %22 = load ptr, ptr %4, align 8, !tbaa !9
  %23 = getelementptr inbounds nuw %struct.Py_buffer, ptr %22, i32 0, i32 9
  %24 = load ptr, ptr %23, align 8, !tbaa !47
  %25 = icmp ne ptr %24, null
  br i1 %25, label %26, label %38

26:                                               ; preds = %21
  %27 = load ptr, ptr %4, align 8, !tbaa !9
  %28 = getelementptr inbounds nuw %struct.Py_buffer, ptr %27, i32 0, i32 9
  %29 = load ptr, ptr %28, align 8, !tbaa !47
  %30 = load ptr, ptr %4, align 8, !tbaa !9
  %31 = getelementptr inbounds nuw %struct.Py_buffer, ptr %30, i32 0, i32 5
  %32 = load i32, ptr %31, align 4, !tbaa !25
  %33 = sub i32 %32, 1
  %34 = sext i32 %33 to i64
  %35 = getelementptr i64, ptr %29, i64 %34
  %36 = load i64, ptr %35, align 8, !tbaa !23
  %37 = icmp sge i64 %36, 0
  br i1 %37, label %68, label %38

38:                                               ; preds = %26, %21
  %39 = load ptr, ptr %3, align 8, !tbaa !9
  %40 = getelementptr inbounds nuw %struct.Py_buffer, ptr %39, i32 0, i32 8
  %41 = load ptr, ptr %40, align 8, !tbaa !55
  %42 = load ptr, ptr %3, align 8, !tbaa !9
  %43 = getelementptr inbounds nuw %struct.Py_buffer, ptr %42, i32 0, i32 5
  %44 = load i32, ptr %43, align 4, !tbaa !25
  %45 = sub i32 %44, 1
  %46 = sext i32 %45 to i64
  %47 = getelementptr i64, ptr %41, i64 %46
  %48 = load i64, ptr %47, align 8, !tbaa !23
  %49 = load ptr, ptr %3, align 8, !tbaa !9
  %50 = getelementptr inbounds nuw %struct.Py_buffer, ptr %49, i32 0, i32 3
  %51 = load i64, ptr %50, align 8, !tbaa !43
  %52 = icmp eq i64 %48, %51
  br i1 %52, label %53, label %68

53:                                               ; preds = %38
  %54 = load ptr, ptr %4, align 8, !tbaa !9
  %55 = getelementptr inbounds nuw %struct.Py_buffer, ptr %54, i32 0, i32 8
  %56 = load ptr, ptr %55, align 8, !tbaa !55
  %57 = load ptr, ptr %4, align 8, !tbaa !9
  %58 = getelementptr inbounds nuw %struct.Py_buffer, ptr %57, i32 0, i32 5
  %59 = load i32, ptr %58, align 4, !tbaa !25
  %60 = sub i32 %59, 1
  %61 = sext i32 %60 to i64
  %62 = getelementptr i64, ptr %56, i64 %61
  %63 = load i64, ptr %62, align 8, !tbaa !23
  %64 = load ptr, ptr %4, align 8, !tbaa !9
  %65 = getelementptr inbounds nuw %struct.Py_buffer, ptr %64, i32 0, i32 3
  %66 = load i64, ptr %65, align 8, !tbaa !43
  %67 = icmp eq i64 %63, %66
  br label %68

68:                                               ; preds = %53, %38, %26, %9
  %69 = phi i1 [ false, %38 ], [ false, %26 ], [ false, %9 ], [ %67, %53 ]
  %70 = zext i1 %69 to i32
  ret i32 %70
}

; Function Attrs: nounwind uwtable
define internal i32 @equiv_structure(ptr noundef %0, ptr noundef %1) #0 {
  %3 = alloca i32, align 4
  %4 = alloca ptr, align 8
  %5 = alloca ptr, align 8
  store ptr %0, ptr %4, align 8, !tbaa !9
  store ptr %1, ptr %5, align 8, !tbaa !9
  %6 = load ptr, ptr %4, align 8, !tbaa !9
  %7 = load ptr, ptr %5, align 8, !tbaa !9
  %8 = call i32 @equiv_format(ptr noundef %6, ptr noundef %7)
  %9 = icmp ne i32 %8, 0
  br i1 %9, label %10, label %15

10:                                               ; preds = %2
  %11 = load ptr, ptr %4, align 8, !tbaa !9
  %12 = load ptr, ptr %5, align 8, !tbaa !9
  %13 = call i32 @equiv_shape(ptr noundef %11, ptr noundef %12)
  %14 = icmp ne i32 %13, 0
  br i1 %14, label %17, label %15

15:                                               ; preds = %10, %2
  %16 = load ptr, ptr @PyExc_ValueError, align 8, !tbaa !4
  call void @PyErr_SetString(ptr noundef %16, ptr noundef @.str.11)
  store i32 0, ptr %3, align 4
  br label %18

17:                                               ; preds = %10
  store i32 1, ptr %3, align 4
  br label %18

18:                                               ; preds = %17, %15
  %19 = load i32, ptr %3, align 4
  ret i32 %19
}

; Function Attrs: nounwind uwtable
define internal i32 @copy_buffer(ptr noundef %0, ptr noundef %1) #0 {
  %3 = alloca i32, align 4
  %4 = alloca ptr, align 8
  %5 = alloca ptr, align 8
  %6 = alloca ptr, align 8
  %7 = alloca i32, align 4
  store ptr %0, ptr %4, align 8, !tbaa !9
  store ptr %1, ptr %5, align 8, !tbaa !9
  call void @llvm.lifetime.start.p0(i64 8, ptr %6) #9
  store ptr null, ptr %6, align 8, !tbaa !22
  %8 = load ptr, ptr %4, align 8, !tbaa !9
  %9 = load ptr, ptr %5, align 8, !tbaa !9
  %10 = call i32 @equiv_structure(ptr noundef %8, ptr noundef %9)
  %11 = icmp ne i32 %10, 0
  br i1 %11, label %13, label %12

12:                                               ; preds = %2
  store i32 -1, ptr %3, align 4
  store i32 1, ptr %7, align 4
  br label %74

13:                                               ; preds = %2
  %14 = load ptr, ptr %4, align 8, !tbaa !9
  %15 = load ptr, ptr %5, align 8, !tbaa !9
  %16 = call i32 @last_dim_is_contiguous(ptr noundef %14, ptr noundef %15)
  %17 = icmp ne i32 %16, 0
  br i1 %17, label %39, label %18

18:                                               ; preds = %13
  %19 = load ptr, ptr %4, align 8, !tbaa !9
  %20 = getelementptr inbounds nuw %struct.Py_buffer, ptr %19, i32 0, i32 7
  %21 = load ptr, ptr %20, align 8, !tbaa !44
  %22 = load ptr, ptr %4, align 8, !tbaa !9
  %23 = getelementptr inbounds nuw %struct.Py_buffer, ptr %22, i32 0, i32 5
  %24 = load i32, ptr %23, align 4, !tbaa !25
  %25 = sub i32 %24, 1
  %26 = sext i32 %25 to i64
  %27 = getelementptr i64, ptr %21, i64 %26
  %28 = load i64, ptr %27, align 8, !tbaa !23
  %29 = load ptr, ptr %4, align 8, !tbaa !9
  %30 = getelementptr inbounds nuw %struct.Py_buffer, ptr %29, i32 0, i32 3
  %31 = load i64, ptr %30, align 8, !tbaa !43
  %32 = mul i64 %28, %31
  %33 = call ptr @PyMem_Malloc(i64 noundef %32)
  store ptr %33, ptr %6, align 8, !tbaa !22
  %34 = load ptr, ptr %6, align 8, !tbaa !22
  %35 = icmp eq ptr %34, null
  br i1 %35, label %36, label %38

36:                                               ; preds = %18
  %37 = call ptr @PyErr_NoMemory()
  store i32 -1, ptr %3, align 4
  store i32 1, ptr %7, align 4
  br label %74

38:                                               ; preds = %18
  br label %39

39:                                               ; preds = %38, %13
  %40 = load ptr, ptr %4, align 8, !tbaa !9
  %41 = getelementptr inbounds nuw %struct.Py_buffer, ptr %40, i32 0, i32 7
  %42 = load ptr, ptr %41, align 8, !tbaa !44
  %43 = load ptr, ptr %4, align 8, !tbaa !9
  %44 = getelementptr inbounds nuw %struct.Py_buffer, ptr %43, i32 0, i32 5
  %45 = load i32, ptr %44, align 4, !tbaa !25
  %46 = sext i32 %45 to i64
  %47 = load ptr, ptr %4, align 8, !tbaa !9
  %48 = getelementptr inbounds nuw %struct.Py_buffer, ptr %47, i32 0, i32 3
  %49 = load i64, ptr %48, align 8, !tbaa !43
  %50 = load ptr, ptr %4, align 8, !tbaa !9
  %51 = getelementptr inbounds nuw %struct.Py_buffer, ptr %50, i32 0, i32 0
  %52 = load ptr, ptr %51, align 8, !tbaa !30
  %53 = load ptr, ptr %4, align 8, !tbaa !9
  %54 = getelementptr inbounds nuw %struct.Py_buffer, ptr %53, i32 0, i32 8
  %55 = load ptr, ptr %54, align 8, !tbaa !55
  %56 = load ptr, ptr %4, align 8, !tbaa !9
  %57 = getelementptr inbounds nuw %struct.Py_buffer, ptr %56, i32 0, i32 9
  %58 = load ptr, ptr %57, align 8, !tbaa !47
  %59 = load ptr, ptr %5, align 8, !tbaa !9
  %60 = getelementptr inbounds nuw %struct.Py_buffer, ptr %59, i32 0, i32 0
  %61 = load ptr, ptr %60, align 8, !tbaa !30
  %62 = load ptr, ptr %5, align 8, !tbaa !9
  %63 = getelementptr inbounds nuw %struct.Py_buffer, ptr %62, i32 0, i32 8
  %64 = load ptr, ptr %63, align 8, !tbaa !55
  %65 = load ptr, ptr %5, align 8, !tbaa !9
  %66 = getelementptr inbounds nuw %struct.Py_buffer, ptr %65, i32 0, i32 9
  %67 = load ptr, ptr %66, align 8, !tbaa !47
  %68 = load ptr, ptr %6, align 8, !tbaa !22
  call void @copy_rec(ptr noundef %42, i64 noundef %46, i64 noundef %49, ptr noundef %52, ptr noundef %55, ptr noundef %58, ptr noundef %61, ptr noundef %64, ptr noundef %67, ptr noundef %68)
  %69 = load ptr, ptr %6, align 8, !tbaa !22
  %70 = icmp ne ptr %69, null
  br i1 %70, label %71, label %73

71:                                               ; preds = %39
  %72 = load ptr, ptr %6, align 8, !tbaa !22
  call void @PyMem_Free(ptr noundef %72)
  br label %73

73:                                               ; preds = %71, %39
  store i32 0, ptr %3, align 4
  store i32 1, ptr %7, align 4
  br label %74

74:                                               ; preds = %73, %36, %12
  call void @llvm.lifetime.end.p0(i64 8, ptr %6) #9
  %75 = load i32, ptr %3, align 4
  ret i32 %75
}