; Function Attrs: nounwind uwtable
define internal fastcc range(i32 -1, 1) i32 @copy_buffer(ptr noundef nonnull readonly captures(none) %0, ptr noundef readonly captures(none) %1) unnamed_addr #0 {
  %3 = getelementptr inbounds nuw i8, ptr %0, i64 40
  %4 = load ptr, ptr %3, align 8, !tbaa !121
  %5 = load i8, ptr %4, align 1, !tbaa !102
  %6 = icmp eq i8 %5, 64
  %.idx.i.i = zext i1 %6 to i64
  %7 = getelementptr i8, ptr %4, i64 %.idx.i.i
  %8 = getelementptr inbounds nuw i8, ptr %1, i64 40
  %9 = load ptr, ptr %8, align 8, !tbaa !121
  %10 = load i8, ptr %9, align 1, !tbaa !102
  %11 = icmp eq i8 %10, 64
  %.idx11.i.i = zext i1 %11 to i64
  %12 = getelementptr i8, ptr %9, i64 %.idx11.i.i
  %13 = tail call i32 @strcmp(ptr noundef nonnull dereferenceable(1) %7, ptr noundef nonnull dereferenceable(1) %12) #15
  %.not.i.i = icmp eq i32 %13, 0
  br i1 %.not.i.i, label %equiv_format.exit.i, label %equiv_structure.exit

equiv_format.exit.i:                              ; preds = %2
  %14 = getelementptr inbounds nuw i8, ptr %0, i64 24
  %15 = load i64, ptr %14, align 8, !tbaa !119
  %16 = getelementptr inbounds nuw i8, ptr %1, i64 24
  %17 = load i64, ptr %16, align 8, !tbaa !119
  %.not10.i.not.i = icmp eq i64 %15, %17
  br i1 %.not10.i.not.i, label %18, label %equiv_structure.exit

18:                                               ; preds = %equiv_format.exit.i
  %19 = getelementptr inbounds nuw i8, ptr %0, i64 36
  %20 = load i32, ptr %19, align 4, !tbaa !103
  %21 = getelementptr inbounds nuw i8, ptr %1, i64 36
  %22 = load i32, ptr %21, align 4, !tbaa !103
  %.not.i5.i = icmp eq i32 %20, %22
  br i1 %.not.i5.i, label %.preheader.i.i, label %equiv_structure.exit

.preheader.i.i:                                   ; preds = %18
  %23 = icmp sgt i32 %20, 0
  br i1 %23, label %.lr.ph.i.i, label %.loopexit

.lr.ph.i.i:                                       ; preds = %.preheader.i.i
  %24 = getelementptr inbounds nuw i8, ptr %0, i64 48
  %25 = load ptr, ptr %24, align 8, !tbaa !127
  %26 = getelementptr inbounds nuw i8, ptr %1, i64 48
  %27 = load ptr, ptr %26, align 8, !tbaa !127
  %wide.trip.count.i.i = zext nneg i32 %20 to i64
  br label %28

28:                                               ; preds = %33, %.lr.ph.i.i
  %indvars.iv.i.i = phi i64 [ 0, %.lr.ph.i.i ], [ %indvars.iv.next.i.i, %33 ]
  %29 = getelementptr i64, ptr %25, i64 %indvars.iv.i.i
  %30 = load i64, ptr %29, align 8, !tbaa !124
  %31 = getelementptr i64, ptr %27, i64 %indvars.iv.i.i
  %32 = load i64, ptr %31, align 8, !tbaa !124
  %.not13.i.i = icmp eq i64 %30, %32
  br i1 %.not13.i.i, label %33, label %equiv_structure.exit

33:                                               ; preds = %28
  %34 = icmp eq i64 %30, 0
  %indvars.iv.next.i.i = add nuw nsw i64 %indvars.iv.i.i, 1
  %exitcond.not.i.i = icmp eq i64 %indvars.iv.next.i.i, %wide.trip.count.i.i
  %or.cond.i.i = select i1 %34, i1 true, i1 %exitcond.not.i.i
  br i1 %or.cond.i.i, label %.loopexit, label %28, !llvm.loop !157

equiv_structure.exit:                             ; preds = %28, %2, %equiv_format.exit.i, %18
  %35 = load ptr, ptr @PyExc_ValueError, align 8, !tbaa !104
  tail call void @PyErr_SetString(ptr noundef %35, ptr noundef nonnull @.str.11) #14
  br label %82

.loopexit:                                        ; preds = %33, %.preheader.i.i
  %36 = getelementptr inbounds nuw i8, ptr %0, i64 64
  %37 = load ptr, ptr %36, align 8, !tbaa !123
  %.not.i = icmp eq ptr %37, null
  br i1 %.not.i, label %44, label %38

38:                                               ; preds = %.loopexit
  %39 = add i32 %20, -1
  %40 = sext i32 %39 to i64
  %41 = getelementptr i64, ptr %37, i64 %40
  %42 = load i64, ptr %41, align 8, !tbaa !124
  %43 = icmp sgt i64 %42, -1
  br i1 %43, label %last_dim_is_contiguous.exit.thread, label %44

44:                                               ; preds = %38, %.loopexit
  %45 = getelementptr inbounds nuw i8, ptr %1, i64 64
  %46 = load ptr, ptr %45, align 8, !tbaa !123
  %.not13.i = icmp eq ptr %46, null
  %.pre35 = add i32 %20, -1
  %.pre37 = sext i32 %.pre35 to i64
  br i1 %.not13.i, label %._crit_edge, label %47

47:                                               ; preds = %44
  %48 = getelementptr i64, ptr %46, i64 %.pre37
  %49 = load i64, ptr %48, align 8, !tbaa !124
  %50 = icmp sgt i64 %49, -1
  br i1 %50, label %last_dim_is_contiguous.exit.thread, label %._crit_edge

._crit_edge:                                      ; preds = %44, %47
  %51 = getelementptr inbounds nuw i8, ptr %0, i64 56
  %52 = load ptr, ptr %51, align 8, !tbaa !128
  %53 = getelementptr i64, ptr %52, i64 %.pre37
  %54 = load i64, ptr %53, align 8, !tbaa !124
  %55 = icmp eq i64 %54, %15
  br i1 %55, label %last_dim_is_contiguous.exit, label %last_dim_is_contiguous.exit.thread

last_dim_is_contiguous.exit:                      ; preds = %._crit_edge
  %56 = getelementptr inbounds nuw i8, ptr %1, i64 56
  %57 = load ptr, ptr %56, align 8, !tbaa !128
  %58 = getelementptr i64, ptr %57, i64 %.pre37
  %59 = load i64, ptr %58, align 8, !tbaa !124
  %.not = icmp eq i64 %59, %15
  br i1 %.not, label %69, label %last_dim_is_contiguous.exit.thread

last_dim_is_contiguous.exit.thread:               ; preds = %47, %38, %._crit_edge, %last_dim_is_contiguous.exit
  %.pre-phi = phi i64 [ %40, %38 ], [ %.pre37, %._crit_edge ], [ %.pre37, %last_dim_is_contiguous.exit ], [ %.pre37, %47 ]
  %60 = getelementptr inbounds nuw i8, ptr %0, i64 48
  %61 = load ptr, ptr %60, align 8, !tbaa !127
  %62 = getelementptr i64, ptr %61, i64 %.pre-phi
  %63 = load i64, ptr %62, align 8, !tbaa !124
  %64 = mul i64 %15, %63
  %65 = tail call ptr @PyMem_Malloc(i64 noundef %64) #14
  %66 = icmp eq ptr %65, null
  br i1 %66, label %67, label %last_dim_is_contiguous.exit.thread._crit_edge

last_dim_is_contiguous.exit.thread._crit_edge:    ; preds = %last_dim_is_contiguous.exit.thread
  %.pre = load i32, ptr %19, align 4, !tbaa !103
  %.pre27 = load i64, ptr %14, align 8, !tbaa !119
  %.phi.trans.insert = getelementptr inbounds nuw i8, ptr %0, i64 56
  %.pre28 = load ptr, ptr %.phi.trans.insert, align 8, !tbaa !128
  %.pre29 = load ptr, ptr %36, align 8, !tbaa !123
  %.phi.trans.insert30 = getelementptr inbounds nuw i8, ptr %1, i64 56
  %.pre31 = load ptr, ptr %.phi.trans.insert30, align 8, !tbaa !128
  %.phi.trans.insert32 = getelementptr inbounds nuw i8, ptr %1, i64 64
  %.pre33 = load ptr, ptr %.phi.trans.insert32, align 8, !tbaa !123
  br label %69

67:                                               ; preds = %last_dim_is_contiguous.exit.thread
  %68 = tail call ptr @PyErr_NoMemory() #14
  br label %82

69:                                               ; preds = %last_dim_is_contiguous.exit.thread._crit_edge, %last_dim_is_contiguous.exit
  %70 = phi ptr [ %46, %last_dim_is_contiguous.exit ], [ %.pre33, %last_dim_is_contiguous.exit.thread._crit_edge ]
  %71 = phi ptr [ %57, %last_dim_is_contiguous.exit ], [ %.pre31, %last_dim_is_contiguous.exit.thread._crit_edge ]
  %72 = phi ptr [ %37, %last_dim_is_contiguous.exit ], [ %.pre29, %last_dim_is_contiguous.exit.thread._crit_edge ]
  %73 = phi ptr [ %52, %last_dim_is_contiguous.exit ], [ %.pre28, %last_dim_is_contiguous.exit.thread._crit_edge ]
  %74 = phi i64 [ %15, %last_dim_is_contiguous.exit ], [ %.pre27, %last_dim_is_contiguous.exit.thread._crit_edge ]
  %75 = phi i32 [ %20, %last_dim_is_contiguous.exit ], [ %.pre, %last_dim_is_contiguous.exit.thread._crit_edge ]
  %.0 = phi ptr [ null, %last_dim_is_contiguous.exit ], [ %65, %last_dim_is_contiguous.exit.thread._crit_edge ]
  %76 = getelementptr inbounds nuw i8, ptr %0, i64 48
  %77 = load ptr, ptr %76, align 8, !tbaa !127
  %78 = sext i32 %75 to i64
  %79 = load ptr, ptr %0, align 8, !tbaa !117
  %80 = load ptr, ptr %1, align 8, !tbaa !117
  tail call fastcc void @copy_rec(ptr noundef %77, i64 noundef %78, i64 noundef %74, ptr noundef %79, ptr noundef %73, ptr noundef %72, ptr noundef %80, ptr noundef %71, ptr noundef %70, ptr noundef %.0)
  %.not23 = icmp eq ptr %.0, null
  br i1 %.not23, label %82, label %81

81:                                               ; preds = %69
  tail call void @PyMem_Free(ptr noundef nonnull %.0) #14
  br label %82

82:                                               ; preds = %equiv_structure.exit, %69, %81, %67
  %.020 = phi i32 [ -1, %67 ], [ -1, %equiv_structure.exit ], [ 0, %81 ], [ 0, %69 ]
  ret i32 %.020
}